target datalayout = "e-m:e-p270:32:32-p271:32:32-p272:64:64-i64:64-i128:128-f80:128-n8:16:32:64-S128"
target triple = "x86_64-pc-linux-gnu"

%struct.AVFormatContext = type { ptr, ptr, ptr, ptr, ptr, i32, i32, ptr, i32, ptr, i32, ptr, ptr, i64, i64, i64, i32, i32, i32, i64, i64, ptr, i32, i32, ptr, i32, i32, i32, i32, ptr, i64, i32, i32, %struct.AVIOInterruptCB, i32, i32, i32, i32, i64, i32, i32, i32, i32, i32, i32, i32, i32, i32, i32, i32, i32, i64, i32, i32, i32, i32, i32, ptr, ptr, ptr, ptr, i32, ptr, ptr, ptr, ptr, i32, ptr, ptr, i64, ptr, ptr, ptr, i64 }
%struct.AVIOInterruptCB = type { ptr, ptr }
%struct.AVPacket = type { ptr, i64, i64, ptr, i32, i32, i32, ptr, i32, i64, i64, ptr, ptr, %struct.AVRational }
%struct.AVRational = type { i32, i32 }

; Function Attrs: nounwind uwtable
define internal i32 @svs_read_packet(ptr noundef %0, ptr noundef %1) #0 {
  %3 = alloca i32, align 4
  %4 = alloca ptr, align 8
  %5 = alloca ptr, align 8
  %6 = alloca i32, align 4
  %7 = alloca i32, align 4
  store ptr %0, ptr %4, align 8, !tbaa !15
  store ptr %1, ptr %5, align 8, !tbaa !57
  call void @llvm.lifetime.start.p0(i64 4, ptr %6) #7
  %8 = load ptr, ptr %4, align 8, !tbaa !15
  %9 = getelementptr inbounds nuw %struct.AVFormatContext, ptr %8, i32 0, i32 4
  %10 = load ptr, ptr %9, align 8, !tbaa !19
  %11 = call i32 @avio_feof(ptr noundef %10)
  %12 = icmp ne i32 %11, 0
  br i1 %12, label %13, label %14

13:                                               ; preds = %2
  store i32 -541478725, ptr %3, align 4
  store i32 1, ptr %7, align 4
  br label %36

14:                                               ; preds = %2
  %15 = load ptr, ptr %4, align 8, !tbaa !15
  %16 = getelementptr inbounds nuw %struct.AVFormatContext, ptr %15, i32 0, i32 4
  %17 = load ptr, ptr %16, align 8, !tbaa !19
  %18 = load ptr, ptr %5, align 8, !tbaa !57
  %19 = call i32 @av_get_packet(ptr noundef %17, ptr noundef %18, i32 noundef 8192)
  store i32 %19, ptr %6, align 4, !tbaa !34
  %20 = load i32, ptr %6, align 4, !tbaa !34
  %21 = icmp ne i32 %20, 8192
  br i1 %21, label %22, label %32

22:                                               ; preds = %14
  %23 = load i32, ptr %6, align 4, !tbaa !34
  %24 = icmp slt i32 %23, 0
  br i1 %24, label %25, label %27

25:                                               ; preds = %22
  %26 = load i32, ptr %6, align 4, !tbaa !34
  store i32 %26, ptr %3, align 4
  store i32 1, ptr %7, align 4
  br label %36

27:                                               ; preds = %22
  %28 = load ptr, ptr %5, align 8, !tbaa !57
  %29 = getelementptr inbounds nuw %struct.AVPacket, ptr %28, i32 0, i32 6
  %30 = load i32, ptr %29, align 8, !tbaa !59
  %31 = and i32 %30, -3
  store i32 %31, ptr %29, align 8, !tbaa !59
  br label %32

32:                                               ; preds = %27, %14
  %33 = load ptr, ptr %5, align 8, !tbaa !57
  %34 = getelementptr inbounds nuw %struct.AVPacket, ptr %33, i32 0, i32 5
  store i32 0, ptr %34, align 4, !tbaa !60
  %35 = load i32, ptr %6, align 4, !tbaa !34
  store i32 %35, ptr %3, align 4
  store i32 1, ptr %7, align 4
  br label %36

36:                                               ; preds = %32, %25, %13
  call void @llvm.lifetime.end.p0(i64 4, ptr %6) #7
  %37 = load i32, ptr %3, align 4
  ret i32 %37
}