; Function Attrs: nounwind uwtable
define internal i32 @svs_read_packet(ptr noundef readonly captures(none) %0, ptr noundef %1) #1 {
  %3 = getelementptr inbounds nuw i8, ptr %0, i64 32
  %4 = load ptr, ptr %3, align 8, !tbaa !13
  %5 = tail call i32 @avio_feof(ptr noundef %4) #5
  %.not = icmp eq i32 %5, 0
  br i1 %.not, label %6, label %17

6:                                                ; preds = %2
  %7 = load ptr, ptr %3, align 8, !tbaa !13
  %8 = tail call i32 @av_get_packet(ptr noundef %7, ptr noundef %1, i32 noundef 8192) #5
  %.not10 = icmp eq i32 %8, 8192
  br i1 %.not10, label %15, label %9

9:                                                ; preds = %6
  %10 = icmp slt i32 %8, 0
  br i1 %10, label %17, label %11

11:                                               ; preds = %9
  %12 = getelementptr inbounds nuw i8, ptr %1, i64 40
  %13 = load i32, ptr %12, align 8, !tbaa !47
  %14 = and i32 %13, -3
  store i32 %14, ptr %12, align 8, !tbaa !47
  br label %15

15:                                               ; preds = %11, %6
  %16 = getelementptr inbounds nuw i8, ptr %1, i64 36
  store i32 0, ptr %16, align 4, !tbaa !48
  br label %17

17:                                               ; preds = %9, %2, %15
  %.0 = phi i32 [ %8, %15 ], [ -541478725, %2 ], [ %8, %9 ]
  ret i32 %.0
}